(lp0
S'poi'
p1
aS'salary'
p2
aS'fraction_emails_from_POI'
p3
aS'fraction_emails_to_POI'
p4
aS'shared_receipt_with_poi'
p5
aS'restricted_stock'
p6
aS'exercised_stock_options'
p7
aS'total_stock_value'
p8
aS'expenses'
p9
aS'to_messages'
p10
aS'deferral_payments'
p11
aS'total_payments'
p12
aS'loan_advances'
p13
aS'bonus'
p14
aS'restricted_stock_deferred'
p15
aS'deferred_income'
p16
aS'from_messages'
p17
aS'other'
p18
aS'long_term_incentive'
p19
aS'director_fees'
p20
a.